; Function Attrs: mustprogress nofree norecurse nosync nounwind willreturn memory(read, argmem: readwrite, inaccessiblemem: none) uwtable
define hidden noundef ptr @_ZNK6Assimp3FBX12MeshGeometry19ToOutputVertexIndexEjRj(ptr nocapture noundef nonnull readonly align 8 dereferenceable(1000) %this, i32 noundef %in_index, ptr nocapture noundef nonnull writeonly align 4 dereferenceable(4) %count) local_unnamed_addr #10 align 2 {
entry:
  %conv = zext i32 %in_index to i64
  %m_mapping_counts = getelementptr inbounds i8, ptr %this, i64 928
  %_M_finish.i = getelementptr inbounds i8, ptr %this, i64 936
  %0 = load ptr, ptr %_M_finish.i, align 8
  %1 = load ptr, ptr %m_mapping_counts, align 8
  %sub.ptr.lhs.cast.i = ptrtoint ptr %0 to i64
  %sub.ptr.rhs.cast.i = ptrtoint ptr %1 to i64
  %sub.ptr.sub.i = sub i64 %sub.ptr.lhs.cast.i, %sub.ptr.rhs.cast.i
  %sub.ptr.div.i = ashr exact i64 %sub.ptr.sub.i, 2
  %cmp.not = icmp ugt i64 %sub.ptr.div.i, %conv
  br i1 %cmp.not, label %if.end, label %return

if.end:                                           ; preds = %entry
  %add.ptr.i = getelementptr inbounds i32, ptr %1, i64 %conv
  %2 = load i32, ptr %add.ptr.i, align 4
  store i32 %2, ptr %count, align 4
  %m_mappings = getelementptr inbounds i8, ptr %this, i64 976
  %m_mapping_offsets = getelementptr inbounds i8, ptr %this, i64 952
  %3 = load ptr, ptr %m_mapping_offsets, align 8
  %add.ptr.i3 = getelementptr inbounds i32, ptr %3, i64 %conv
  %4 = load i32, ptr %add.ptr.i3, align 4
  %conv7 = zext i32 %4 to i64
  %5 = load ptr, ptr %m_mappings, align 8
  %add.ptr.i4 = getelementptr inbounds i32, ptr %5, i64 %conv7
  br label %return

return:                                           ; preds = %entry, %if.end
  %retval.0 = phi ptr [ %add.ptr.i4, %if.end ], [ null, %entry ]
  ret ptr %retval.0
}